target datalayout = "e-m:e-p270:32:32-p271:32:32-p272:64:64-i64:64-i128:128-f80:128-n8:16:32:64-S128"
target triple = "x86_64-pc-linux-gnu"

%"struct.std::pair" = type { i32, i32 }

; Function Attrs: mustprogress nounwind uwtable
define noundef zeroext i16 @_ZN10open_spiel10phantom_go23VirtualPointFrom2DPointESt4pairIiiE(i64 %0) #4 {
  %2 = alloca %"struct.std::pair", align 4
  store i64 %0, ptr %2, align 4
  %3 = getelementptr inbounds nuw %"struct.std::pair", ptr %2, i32 0, i32 0
  %4 = load i32, ptr %3, align 4
  %5 = add nsw i32 %4, 1
  %6 = mul nsw i32 %5, 21
  %7 = getelementptr inbounds nuw %"struct.std::pair", ptr %2, i32 0, i32 1
  %8 = load i32, ptr %7, align 4
  %9 = add nsw i32 %6, %8
  %10 = add nsw i32 %9, 1
  %11 = trunc i32 %10 to i16
  ret i16 %11
}