; Function Attrs: mustprogress nofree norecurse nosync nounwind willreturn memory(none) uwtable
define noundef zeroext i16 @_ZN10open_spiel10phantom_go23VirtualPointFrom2DPointESt4pairIiiE(i64 %0) local_unnamed_addr #6 {
  %.sroa.0.0.extract.trunc = trunc i64 %0 to i16
  %.sroa.2.0.extract.shift = lshr i64 %0, 32
  %.sroa.2.0.extract.trunc = trunc i64 %.sroa.2.0.extract.shift to i16
  %2 = mul i16 %.sroa.0.0.extract.trunc, 21
  %3 = add i16 %2, 22
  %4 = add i16 %3, %.sroa.2.0.extract.trunc
  ret i16 %4
}